target datalayout = "e-m:e-p270:32:32-p271:32:32-p272:64:64-i64:64-i128:128-f80:128-n8:16:32:64-S128"
target triple = "x86_64-pc-linux-gnu"

%struct._uat_field_t = type { ptr, ptr, i32, %struct.anon, %struct.anon.0, ptr, ptr, ptr }
%struct.anon = type { ptr, ptr, ptr }
%struct.anon.0 = type { ptr, ptr, ptr }

@.str = private unnamed_addr constant [1 x i8] zeroinitializer, align 1
@.str.1 = private unnamed_addr constant [11 x i8] c"epan/uat.c\00", align 1
@.str.2 = private unnamed_addr constant [31 x i8] c"assertion \22not reached\22 failed\00", align 1
@.str.3 = private unnamed_addr constant [5 x i8] c"%.2X\00", align 1
@__func__.uat_fld_tostr = private unnamed_addr constant [14 x i8] c"uat_fld_tostr\00", align 1

; Function Attrs: null_pointer_is_valid sspstrong uwtable
define ptr @uat_fld_tostr(ptr noundef %0, ptr noundef %1) #0 {
  %3 = alloca ptr, align 8
  %4 = alloca ptr, align 8
  %5 = alloca i32, align 4
  %6 = alloca ptr, align 8
  %7 = alloca ptr, align 8
  %8 = alloca ptr, align 8
  %9 = alloca i32, align 4
  store ptr %0, ptr %3, align 8
  store ptr %1, ptr %4, align 8
  call void @llvm.lifetime.start.p0(i64 4, ptr %5) #13
  call void @llvm.lifetime.start.p0(i64 8, ptr %6) #13
  call void @llvm.lifetime.start.p0(i64 8, ptr %7) #13
  %10 = load ptr, ptr %4, align 8
  %11 = getelementptr inbounds nuw %struct._uat_field_t, ptr %10, i32 0, i32 3
  %12 = getelementptr inbounds nuw %struct.anon, ptr %11, i32 0, i32 2
  %13 = load ptr, ptr %12, align 8
  %14 = load ptr, ptr %3, align 8
  %15 = load ptr, ptr %4, align 8
  %16 = getelementptr inbounds nuw %struct._uat_field_t, ptr %15, i32 0, i32 4
  %17 = getelementptr inbounds nuw %struct.anon.0, ptr %16, i32 0, i32 2
  %18 = load ptr, ptr %17, align 8
  %19 = load ptr, ptr %4, align 8
  %20 = getelementptr inbounds nuw %struct._uat_field_t, ptr %19, i32 0, i32 5
  %21 = load ptr, ptr %20, align 8
  call void %13(ptr noundef %14, ptr noundef %6, ptr noundef %5, ptr noundef %18, ptr noundef %21)
  %22 = load ptr, ptr %4, align 8
  %23 = getelementptr inbounds nuw %struct._uat_field_t, ptr %22, i32 0, i32 2
  %24 = load i32, ptr %23, align 8
  switch i32 %24, label %54 [
    i32 0, label %25
    i32 3, label %25
    i32 10, label %25
    i32 6, label %25
    i32 7, label %25
    i32 8, label %25
    i32 9, label %25
    i32 5, label %25
    i32 1, label %25
    i32 4, label %25
    i32 2, label %30
  ]

25:                                               ; preds = %2, %2, %2, %2, %2, %2, %2, %2, %2, %2
  %26 = load ptr, ptr %6, align 8
  %27 = load i32, ptr %5, align 4
  %28 = zext i32 %27 to i64
  %29 = call noalias ptr @g_strndup(ptr noundef %26, i64 noundef %28)
  store ptr %29, ptr %7, align 8
  br label %55

30:                                               ; preds = %2
  call void @llvm.lifetime.start.p0(i64 8, ptr %8) #13
  %31 = load i32, ptr %5, align 4
  %32 = mul i32 %31, 2
  %33 = add i32 %32, 1
  %34 = zext i32 %33 to i64
  %35 = call ptr @g_string_sized_new(i64 noundef %34)
  store ptr %35, ptr %8, align 8
  call void @llvm.lifetime.start.p0(i64 4, ptr %9) #13
  store i32 0, ptr %9, align 4
  br label %36

36:                                               ; preds = %48, %30
  %37 = load i32, ptr %9, align 4
  %38 = load i32, ptr %5, align 4
  %39 = icmp ult i32 %37, %38
  br i1 %39, label %40, label %51

40:                                               ; preds = %36
  %41 = load ptr, ptr %8, align 8
  %42 = load ptr, ptr %6, align 8
  %43 = load i32, ptr %9, align 4
  %44 = zext i32 %43 to i64
  %45 = getelementptr i8, ptr %42, i64 %44
  %46 = load i8, ptr %45, align 1
  %47 = zext i8 %46 to i32
  call void (ptr, ptr, ...) @g_string_append_printf(ptr noundef %41, ptr noundef @.str.3, i32 noundef %47)
  br label %48

48:                                               ; preds = %40
  %49 = load i32, ptr %9, align 4
  %50 = add i32 %49, 1
  store i32 %50, ptr %9, align 4
  br label %36, !llvm.loop !14

51:                                               ; preds = %36
  %52 = load ptr, ptr %8, align 8
  %53 = call ptr @g_string_free(ptr noundef %52, i32 noundef 0)
  store ptr %53, ptr %7, align 8
  call void @llvm.lifetime.end.p0(i64 4, ptr %9) #13
  call void @llvm.lifetime.end.p0(i64 8, ptr %8) #13
  br label %55

54:                                               ; preds = %2
  call void (ptr, i32, ptr, i64, ptr, ptr, ...) @ws_log_fatal_full(ptr noundef @.str, i32 noundef 7, ptr noundef @.str.1, i64 noundef 318, ptr noundef @__func__.uat_fld_tostr, ptr noundef @.str.2) #16
  unreachable

55:                                               ; preds = %51, %25
  %56 = load ptr, ptr %6, align 8
  call void @g_free(ptr noundef %56)
  %57 = load ptr, ptr %7, align 8
  call void @llvm.lifetime.end.p0(i64 8, ptr %7) #13
  call void @llvm.lifetime.end.p0(i64 8, ptr %6) #13
  call void @llvm.lifetime.end.p0(i64 4, ptr %5) #13
  ret ptr %57
}