; Function Attrs: null_pointer_is_valid sspstrong uwtable
define ptr @uat_fld_tostr(ptr noundef %0, ptr noundef readonly captures(none) %1) local_unnamed_addr #0 {
  %3 = alloca i32, align 4
  %4 = alloca ptr, align 8
  call void @llvm.lifetime.start.p0(i64 4, ptr nonnull %3) #17
  call void @llvm.lifetime.start.p0(i64 8, ptr nonnull %4) #17
  %5 = getelementptr inbounds nuw i8, ptr %1, i64 40
  %6 = load ptr, ptr %5, align 8
  %7 = getelementptr inbounds nuw i8, ptr %1, i64 64
  %8 = load ptr, ptr %7, align 8
  %9 = getelementptr inbounds nuw i8, ptr %1, i64 72
  %10 = load ptr, ptr %9, align 8
  call void %6(ptr noundef %0, ptr noundef nonnull %4, ptr noundef nonnull %3, ptr noundef %8, ptr noundef %10)
  %11 = getelementptr inbounds nuw i8, ptr %1, i64 16
  %12 = load i32, ptr %11, align 8
  switch i32 %12, label %33 [
    i32 0, label %13
    i32 3, label %13
    i32 10, label %13
    i32 6, label %13
    i32 7, label %13
    i32 8, label %13
    i32 9, label %13
    i32 5, label %13
    i32 1, label %13
    i32 4, label %13
    i32 2, label %18
  ]

13:                                               ; preds = %2, %2, %2, %2, %2, %2, %2, %2, %2, %2
  %14 = load ptr, ptr %4, align 8
  %15 = load i32, ptr %3, align 4
  %16 = zext i32 %15 to i64
  %17 = call noalias ptr @g_strndup(ptr noundef %14, i64 noundef %16)
  br label %34

18:                                               ; preds = %2
  %19 = load i32, ptr %3, align 4
  %20 = shl i32 %19, 1
  %21 = or disjoint i32 %20, 1
  %22 = zext i32 %21 to i64
  %23 = call ptr @g_string_sized_new(i64 noundef %22)
  %24 = load i32, ptr %3, align 4
  %.not = icmp eq i32 %24, 0
  br i1 %.not, label %._crit_edge, label %.lr.ph

.lr.ph:                                           ; preds = %18, %.lr.ph
  %indvars.iv = phi i64 [ %indvars.iv.next, %.lr.ph ], [ 0, %18 ]
  %25 = load ptr, ptr %4, align 8
  %26 = getelementptr i8, ptr %25, i64 %indvars.iv
  %27 = load i8, ptr %26, align 1
  %28 = zext i8 %27 to i32
  call void (ptr, ptr, ...) @g_string_append_printf(ptr noundef %23, ptr noundef nonnull @.str.3, i32 noundef %28)
  %indvars.iv.next = add nuw nsw i64 %indvars.iv, 1
  %29 = load i32, ptr %3, align 4
  %30 = zext i32 %29 to i64
  %31 = icmp samesign ult i64 %indvars.iv.next, %30
  br i1 %31, label %.lr.ph, label %._crit_edge, !llvm.loop !14

._crit_edge:                                      ; preds = %.lr.ph, %18
  %32 = call ptr @g_string_free(ptr noundef %23, i32 noundef 0)
  br label %34

33:                                               ; preds = %2
  call void (ptr, i32, ptr, i64, ptr, ptr, ...) @ws_log_fatal_full(ptr noundef nonnull @.str, i32 noundef 7, ptr noundef nonnull @.str.1, i64 noundef 318, ptr noundef nonnull @__func__.uat_fld_tostr, ptr noundef nonnull @.str.2) #18
  unreachable

34:                                               ; preds = %._crit_edge, %13
  %.010 = phi ptr [ %32, %._crit_edge ], [ %17, %13 ]
  %35 = load ptr, ptr %4, align 8
  call void @g_free(ptr noundef %35)
  call void @llvm.lifetime.end.p0(i64 8, ptr nonnull %4) #17
  call void @llvm.lifetime.end.p0(i64 4, ptr nonnull %3) #17
  ret ptr %.010
}